; Function Attrs: nounwind uwtable
define hidden void @zif_get_current_user(ptr nocapture noundef readonly %0, ptr nocapture noundef writeonly %1) #0 {
  %3 = getelementptr inbounds i8, ptr %0, i64 44
  %4 = load i32, ptr %3, align 4
  %.not = icmp eq i32 %4, 0
  br i1 %.not, label %6, label %5

5:                                                ; preds = %2
  tail call void @zend_wrong_parameters_none_error() #18
  br label %18

6:                                                ; preds = %2
  %7 = tail call ptr @php_get_current_user() #18
  %8 = tail call i64 @strlen(ptr noundef nonnull dereferenceable(1) %7) #19
  %9 = and i64 %8, -8
  %10 = add i64 %9, 32
  %11 = tail call noalias ptr @_emalloc(i64 noundef %10) #20
  store i32 1, ptr %11, align 4
  %12 = getelementptr inbounds i8, ptr %11, i64 4
  store i32 22, ptr %12, align 4
  %13 = getelementptr inbounds i8, ptr %11, i64 8
  store i64 0, ptr %13, align 8
  %14 = getelementptr inbounds i8, ptr %11, i64 16
  store i64 %8, ptr %14, align 8
  %15 = getelementptr inbounds i8, ptr %11, i64 24
  tail call void @llvm.memcpy.p0.p0.i64(ptr nonnull align 8 %15, ptr align 1 %7, i64 %8, i1 false)
  %16 = getelementptr inbounds [1 x i8], ptr %15, i64 0, i64 %8
  store i8 0, ptr %16, align 1
  store ptr %11, ptr %1, align 8
  %17 = getelementptr inbounds i8, ptr %1, i64 8
  store i32 262, ptr %17, align 8
  br label %18

18:                                               ; preds = %6, %5
  ret void
}